; Function Attrs: mustprogress uwtable
define hidden noundef zeroext i1 @_ZN2lp8int_cube22tighten_terms_for_cubeEv(ptr noundef nonnull readonly align 8 captures(none) dereferenceable(16) %0) local_unnamed_addr #5 align 2 {
  %2 = getelementptr inbounds nuw i8, ptr %0, i64 8
  %3 = load ptr, ptr %2, align 8, !tbaa !28
  %4 = getelementptr inbounds nuw i8, ptr %3, i64 1624
  %5 = load ptr, ptr %4, align 8, !tbaa !29
  %6 = icmp eq ptr %5, null
  br i1 %6, label %._crit_edge, label %_ZNK6vectorIPN2lp8lar_termELb1EjE3endEv.exit

_ZNK6vectorIPN2lp8lar_termELb1EjE3endEv.exit:     ; preds = %1
  %7 = getelementptr inbounds i8, ptr %5, i64 -4
  %8 = load i32, ptr %7, align 4, !tbaa !33
  %9 = zext i32 %8 to i64
  %10 = getelementptr inbounds nuw ptr, ptr %5, i64 %9
  %.not13 = icmp eq i32 %8, 0
  br i1 %.not13, label %._crit_edge, label %.lr.ph

.lr.ph:                                           ; preds = %_ZNK6vectorIPN2lp8lar_termELb1EjE3endEv.exit, %.lr.ph
  %.01214 = phi ptr [ %15, %.lr.ph ], [ %5, %_ZNK6vectorIPN2lp8lar_termELb1EjE3endEv.exit ]
  %11 = load ptr, ptr %.01214, align 8, !tbaa !34
  %12 = getelementptr inbounds nuw i8, ptr %11, i64 24
  %13 = load i32, ptr %12, align 8, !tbaa !36
  %14 = tail call noundef zeroext i1 @_ZN2lp8int_cube21tighten_term_for_cubeEj(ptr noundef nonnull align 8 dereferenceable(16) %0, i32 noundef %13)
  %15 = getelementptr inbounds nuw i8, ptr %.01214, i64 8
  %.not = icmp ne ptr %15, %10
  %or.cond.not = select i1 %14, i1 %.not, i1 false
  br i1 %or.cond.not, label %.lr.ph, label %._crit_edge

._crit_edge:                                      ; preds = %.lr.ph, %1, %_ZNK6vectorIPN2lp8lar_termELb1EjE3endEv.exit
  %.not.lcssa = phi i1 [ true, %_ZNK6vectorIPN2lp8lar_termELb1EjE3endEv.exit ], [ true, %1 ], [ %14, %.lr.ph ]
  ret i1 %.not.lcssa
}